target datalayout = "e-m:e-p270:32:32-p271:32:32-p272:64:64-i64:64-i128:128-f80:128-n8:16:32:64-S128"
target triple = "x86_64-pc-linux-gnu"

%struct.AVFormatContext = type { ptr, ptr, ptr, ptr, ptr, i32, i32, ptr, i32, ptr, i32, ptr, ptr, i64, i64, i64, i32, i32, i32, i64, i64, ptr, i32, i32, ptr, i32, i32, i32, i32, ptr, i64, i32, i32, %struct.AVIOInterruptCB, i32, i32, i32, i32, i64, i32, i32, i32, i32, i32, i32, i32, i32, i32, i32, i32, i32, i64, i32, i32, i32, i32, i32, ptr, ptr, ptr, ptr, i32, ptr, ptr, ptr, ptr, i32, ptr, ptr, i64, ptr, ptr, ptr, i64 }
%struct.AVIOInterruptCB = type { ptr, ptr }
%struct.AVStream = type { ptr, i32, i32, ptr, ptr, %struct.AVRational, i64, i64, i64, i32, i32, %struct.AVRational, ptr, %struct.AVRational, %struct.AVPacket, i32, %struct.AVRational, i32 }
%struct.AVPacket = type { ptr, i64, i64, ptr, i32, i32, i32, ptr, i32, i64, i64, ptr, ptr, %struct.AVRational }
%struct.AVRational = type { i32, i32 }
%struct.AVCodecParameters = type { i32, i32, i32, ptr, i32, ptr, i32, i32, i64, i32, i32, i32, i32, i32, i32, %struct.AVRational, %struct.AVRational, i32, i32, i32, i32, i32, i32, i32, %struct.AVChannelLayout, i32, i32, i32, i32, i32, i32 }
%struct.AVChannelLayout = type { i32, i32, %union.anon, ptr }
%union.anon = type { i64 }
%union.av_intfloat64 = type { i64 }

@.str.2 = private unnamed_addr constant [27 x i8] c"invalid comment size (%u)\0A\00", align 1
@.str.3 = private unnamed_addr constant [26 x i8] c"invalid sample rate (%f)\0A\00", align 1
@.str.4 = private unnamed_addr constant [48 x i8] c"truncating fractional part of sample rate (%f)\0A\00", align 1
@.str.5 = private unnamed_addr constant [16 x i8] c"invalid header\0A\00", align 1
@.str.6 = private unnamed_addr constant [8 x i8] c"comment\00", align 1

; Function Attrs: alwaysinline nounwind uwtable
define internal double @av_int2double(i64 noundef %0) #4 {
  %2 = alloca i64, align 8
  %3 = alloca %union.av_intfloat64, align 8
  store i64 %0, ptr %2, align 8, !tbaa !54
  call void @llvm.lifetime.start.p0(i64 8, ptr %3) #7
  %4 = load i64, ptr %2, align 8, !tbaa !54
  store i64 %4, ptr %3, align 8, !tbaa !13
  %5 = load double, ptr %3, align 8, !tbaa !13
  call void @llvm.lifetime.end.p0(i64 8, ptr %3) #7
  ret double %5
}

; Function Attrs: nounwind uwtable
define internal i32 @sox_read_header(ptr noundef %0) #0 {
  %2 = alloca i32, align 4
  %3 = alloca ptr, align 8
  %4 = alloca ptr, align 8
  %5 = alloca i32, align 4
  %6 = alloca i32, align 4
  %7 = alloca double, align 8
  %8 = alloca double, align 8
  %9 = alloca i32, align 4
  %10 = alloca ptr, align 8
  %11 = alloca i32, align 4
  %12 = alloca ptr, align 8
  store ptr %0, ptr %3, align 8, !tbaa !14
  call void @llvm.lifetime.start.p0(i64 8, ptr %4) #7
  %13 = load ptr, ptr %3, align 8, !tbaa !14
  %14 = getelementptr inbounds nuw %struct.AVFormatContext, ptr %13, i32 0, i32 4
  %15 = load ptr, ptr %14, align 8, !tbaa !16
  store ptr %15, ptr %4, align 8, !tbaa !31
  call void @llvm.lifetime.start.p0(i64 4, ptr %5) #7
  call void @llvm.lifetime.start.p0(i64 4, ptr %6) #7
  call void @llvm.lifetime.start.p0(i64 8, ptr %7) #7
  call void @llvm.lifetime.start.p0(i64 8, ptr %8) #7
  call void @llvm.lifetime.start.p0(i64 4, ptr %9) #7
  call void @llvm.lifetime.start.p0(i64 8, ptr %10) #7
  %16 = load ptr, ptr %3, align 8, !tbaa !14
  %17 = call ptr @avformat_new_stream(ptr noundef %16, ptr noundef null)
  store ptr %17, ptr %10, align 8, !tbaa !32
  %18 = load ptr, ptr %10, align 8, !tbaa !32
  %19 = icmp ne ptr %18, null
  br i1 %19, label %21, label %20

20:                                               ; preds = %1
  store i32 -12, ptr %2, align 4
  store i32 1, ptr %11, align 4
  br label %200

21:                                               ; preds = %1
  %22 = load ptr, ptr %10, align 8, !tbaa !32
  %23 = getelementptr inbounds nuw %struct.AVStream, ptr %22, i32 0, i32 3
  %24 = load ptr, ptr %23, align 8, !tbaa !34
  %25 = getelementptr inbounds nuw %struct.AVCodecParameters, ptr %24, i32 0, i32 0
  store i32 1, ptr %25, align 8, !tbaa !41
  %26 = load ptr, ptr %4, align 8, !tbaa !31
  %27 = call i32 @avio_rl32(ptr noundef %26)
  %28 = icmp eq i32 %27, 1483690798
  br i1 %28, label %29, label %45

29:                                               ; preds = %21
  %30 = load ptr, ptr %10, align 8, !tbaa !32
  %31 = getelementptr inbounds nuw %struct.AVStream, ptr %30, i32 0, i32 3
  %32 = load ptr, ptr %31, align 8, !tbaa !34
  %33 = getelementptr inbounds nuw %struct.AVCodecParameters, ptr %32, i32 0, i32 1
  store i32 65544, ptr %33, align 4, !tbaa !44
  %34 = load ptr, ptr %4, align 8, !tbaa !31
  %35 = call i32 @avio_rl32(ptr noundef %34)
  store i32 %35, ptr %5, align 4, !tbaa !45
  %36 = load ptr, ptr %4, align 8, !tbaa !31
  %37 = call i64 @avio_skip(ptr noundef %36, i64 noundef 8)
  %38 = load ptr, ptr %4, align 8, !tbaa !31
  %39 = call i64 @avio_rl64(ptr noundef %38)
  %40 = call nsz double @av_int2double(i64 noundef %39)
  store double %40, ptr %7, align 8, !tbaa !46
  %41 = load ptr, ptr %4, align 8, !tbaa !31
  %42 = call i32 @avio_rl32(ptr noundef %41)
  store i32 %42, ptr %9, align 4, !tbaa !45
  %43 = load ptr, ptr %4, align 8, !tbaa !31
  %44 = call i32 @avio_rl32(ptr noundef %43)
  store i32 %44, ptr %6, align 4, !tbaa !45
  br label %61

45:                                               ; preds = %21
  %46 = load ptr, ptr %10, align 8, !tbaa !32
  %47 = getelementptr inbounds nuw %struct.AVStream, ptr %46, i32 0, i32 3
  %48 = load ptr, ptr %47, align 8, !tbaa !34
  %49 = getelementptr inbounds nuw %struct.AVCodecParameters, ptr %48, i32 0, i32 1
  store i32 65545, ptr %49, align 4, !tbaa !44
  %50 = load ptr, ptr %4, align 8, !tbaa !31
  %51 = call i32 @avio_rb32(ptr noundef %50)
  store i32 %51, ptr %5, align 4, !tbaa !45
  %52 = load ptr, ptr %4, align 8, !tbaa !31
  %53 = call i64 @avio_skip(ptr noundef %52, i64 noundef 8)
  %54 = load ptr, ptr %4, align 8, !tbaa !31
  %55 = call i64 @avio_rb64(ptr noundef %54)
  %56 = call nsz double @av_int2double(i64 noundef %55)
  store double %56, ptr %7, align 8, !tbaa !46
  %57 = load ptr, ptr %4, align 8, !tbaa !31
  %58 = call i32 @avio_rb32(ptr noundef %57)
  store i32 %58, ptr %9, align 4, !tbaa !45
  %59 = load ptr, ptr %4, align 8, !tbaa !31
  %60 = call i32 @avio_rb32(ptr noundef %59)
  store i32 %60, ptr %6, align 4, !tbaa !45
  br label %61

61:                                               ; preds = %45, %29
  %62 = load i32, ptr %9, align 4, !tbaa !45
  %63 = load ptr, ptr %10, align 8, !tbaa !32
  %64 = getelementptr inbounds nuw %struct.AVStream, ptr %63, i32 0, i32 3
  %65 = load ptr, ptr %64, align 8, !tbaa !34
  %66 = getelementptr inbounds nuw %struct.AVCodecParameters, ptr %65, i32 0, i32 24
  %67 = getelementptr inbounds nuw %struct.AVChannelLayout, ptr %66, i32 0, i32 1
  store i32 %62, ptr %67, align 4, !tbaa !48
  %68 = load i32, ptr %6, align 4, !tbaa !45
  %69 = icmp ugt i32 %68, -33
  br i1 %69, label %70, label %73

70:                                               ; preds = %61
  %71 = load ptr, ptr %3, align 8, !tbaa !14
  %72 = load i32, ptr %6, align 4, !tbaa !45
  call void (ptr, i32, ptr, ...) @av_log(ptr noundef %71, i32 noundef 16, ptr noundef @.str.2, i32 noundef %72)
  store i32 -1094995529, ptr %2, align 4
  store i32 1, ptr %11, align 4
  br label %200

73:                                               ; preds = %61
  %74 = load double, ptr %7, align 8, !tbaa !46
  %75 = fcmp nsz ole double %74, 0.000000e+00
  br i1 %75, label %79, label %76

76:                                               ; preds = %73
  %77 = load double, ptr %7, align 8, !tbaa !46
  %78 = fcmp nsz ogt double %77, 0x41DFFFFFFFC00000
  br i1 %78, label %79, label %82

79:                                               ; preds = %76, %73
  %80 = load ptr, ptr %3, align 8, !tbaa !14
  %81 = load double, ptr %7, align 8, !tbaa !46
  call void (ptr, i32, ptr, ...) @av_log(ptr noundef %80, i32 noundef 16, ptr noundef @.str.3, double noundef %81)
  store i32 -1094995529, ptr %2, align 4
  store i32 1, ptr %11, align 4
  br label %200

82:                                               ; preds = %76
  %83 = load double, ptr %7, align 8, !tbaa !46
  %84 = load double, ptr %7, align 8, !tbaa !46
  %85 = call nsz double @llvm.floor.f64(double %84)
  %86 = fsub nsz double %83, %85
  store double %86, ptr %8, align 8, !tbaa !46
  %87 = load double, ptr %8, align 8, !tbaa !46
  %88 = fcmp nsz une double %87, 0.000000e+00
  br i1 %88, label %89, label %92

89:                                               ; preds = %82
  %90 = load ptr, ptr %3, align 8, !tbaa !14
  %91 = load double, ptr %8, align 8, !tbaa !46
  call void (ptr, i32, ptr, ...) @av_log(ptr noundef %90, i32 noundef 24, ptr noundef @.str.4, double noundef %91)
  br label %92

92:                                               ; preds = %89, %82
  %93 = load i32, ptr %5, align 4, !tbaa !45
  %94 = add i32 %93, 4
  %95 = and i32 %94, 7
  %96 = icmp ne i32 %95, 0
  br i1 %96, label %108, label %97

97:                                               ; preds = %92
  %98 = load i32, ptr %5, align 4, !tbaa !45
  %99 = load i32, ptr %6, align 4, !tbaa !45
  %100 = add i32 28, %99
  %101 = icmp ult i32 %98, %100
  br i1 %101, label %108, label %102

102:                                              ; preds = %97
  %103 = load i32, ptr %9, align 4, !tbaa !45
  %104 = icmp sgt i32 %103, 65535
  br i1 %104, label %108, label %105

105:                                              ; preds = %102
  %106 = load i32, ptr %9, align 4, !tbaa !45
  %107 = icmp sle i32 %106, 0
  br i1 %107, label %108, label %110

108:                                              ; preds = %105, %102, %97, %92
  %109 = load ptr, ptr %3, align 8, !tbaa !14
  call void (ptr, i32, ptr, ...) @av_log(ptr noundef %109, i32 noundef 16, ptr noundef @.str.5)
  store i32 -1094995529, ptr %2, align 4
  store i32 1, ptr %11, align 4
  br label %200

110:                                              ; preds = %105
  %111 = load i32, ptr %6, align 4, !tbaa !45
  %112 = icmp ne i32 %111, 0
  br i1 %112, label %113, label %144

113:                                              ; preds = %110
  %114 = load i32, ptr %6, align 4, !tbaa !45
  %115 = icmp ult i32 %114, -1
  br i1 %115, label %116, label %144

116:                                              ; preds = %113
  call void @llvm.lifetime.start.p0(i64 8, ptr %12) #7
  %117 = load i32, ptr %6, align 4, !tbaa !45
  %118 = add i32 %117, 1
  %119 = zext i32 %118 to i64
  %120 = call noalias ptr @av_malloc(i64 noundef %119)
  store ptr %120, ptr %12, align 8, !tbaa !49
  %121 = load ptr, ptr %12, align 8, !tbaa !49
  %122 = icmp ne ptr %121, null
  br i1 %122, label %124, label %123

123:                                              ; preds = %116
  store i32 -12, ptr %2, align 4
  store i32 1, ptr %11, align 4
  br label %141

124:                                              ; preds = %116
  %125 = load ptr, ptr %4, align 8, !tbaa !31
  %126 = load ptr, ptr %12, align 8, !tbaa !49
  %127 = load i32, ptr %6, align 4, !tbaa !45
  %128 = call i32 @avio_read(ptr noundef %125, ptr noundef %126, i32 noundef %127)
  %129 = load i32, ptr %6, align 4, !tbaa !45
  %130 = icmp ne i32 %128, %129
  br i1 %130, label %131, label %132

131:                                              ; preds = %124
  call void @av_freep(ptr noundef %12)
  store i32 -5, ptr %2, align 4
  store i32 1, ptr %11, align 4
  br label %141

132:                                              ; preds = %124
  %133 = load ptr, ptr %12, align 8, !tbaa !49
  %134 = load i32, ptr %6, align 4, !tbaa !45
  %135 = zext i32 %134 to i64
  %136 = getelementptr inbounds nuw i8, ptr %133, i64 %135
  store i8 0, ptr %136, align 1, !tbaa !13
  %137 = load ptr, ptr %3, align 8, !tbaa !14
  %138 = getelementptr inbounds nuw %struct.AVFormatContext, ptr %137, i32 0, i32 29
  %139 = load ptr, ptr %12, align 8, !tbaa !49
  %140 = call i32 @av_dict_set(ptr noundef %138, ptr noundef @.str.6, ptr noundef %139, i32 noundef 8)
  store i32 0, ptr %11, align 4
  br label %141

141:                                              ; preds = %132, %131, %123
  call void @llvm.lifetime.end.p0(i64 8, ptr %12) #7
  %142 = load i32, ptr %11, align 4
  switch i32 %142, label %200 [
    i32 0, label %143
  ]

143:                                              ; preds = %141
  br label %144

144:                                              ; preds = %143, %113, %110
  %145 = load ptr, ptr %4, align 8, !tbaa !31
  %146 = load i32, ptr %5, align 4, !tbaa !45
  %147 = sub i32 %146, 28
  %148 = load i32, ptr %6, align 4, !tbaa !45
  %149 = sub i32 %147, %148
  %150 = zext i32 %149 to i64
  %151 = call i64 @avio_skip(ptr noundef %145, i64 noundef %150)
  %152 = load double, ptr %7, align 8, !tbaa !46
  %153 = fptosi double %152 to i32
  %154 = load ptr, ptr %10, align 8, !tbaa !32
  %155 = getelementptr inbounds nuw %struct.AVStream, ptr %154, i32 0, i32 3
  %156 = load ptr, ptr %155, align 8, !tbaa !34
  %157 = getelementptr inbounds nuw %struct.AVCodecParameters, ptr %156, i32 0, i32 25
  store i32 %153, ptr %157, align 8, !tbaa !50
  %158 = load ptr, ptr %10, align 8, !tbaa !32
  %159 = getelementptr inbounds nuw %struct.AVStream, ptr %158, i32 0, i32 3
  %160 = load ptr, ptr %159, align 8, !tbaa !34
  %161 = getelementptr inbounds nuw %struct.AVCodecParameters, ptr %160, i32 0, i32 9
  store i32 32, ptr %161, align 8, !tbaa !51
  %162 = load ptr, ptr %10, align 8, !tbaa !32
  %163 = getelementptr inbounds nuw %struct.AVStream, ptr %162, i32 0, i32 3
  %164 = load ptr, ptr %163, align 8, !tbaa !34
  %165 = getelementptr inbounds nuw %struct.AVCodecParameters, ptr %164, i32 0, i32 25
  %166 = load i32, ptr %165, align 8, !tbaa !50
  %167 = sext i32 %166 to i64
  %168 = load ptr, ptr %10, align 8, !tbaa !32
  %169 = getelementptr inbounds nuw %struct.AVStream, ptr %168, i32 0, i32 3
  %170 = load ptr, ptr %169, align 8, !tbaa !34
  %171 = getelementptr inbounds nuw %struct.AVCodecParameters, ptr %170, i32 0, i32 9
  %172 = load i32, ptr %171, align 8, !tbaa !51
  %173 = sext i32 %172 to i64
  %174 = mul nsw i64 %167, %173
  %175 = load i32, ptr %9, align 4, !tbaa !45
  %176 = sext i32 %175 to i64
  %177 = mul nsw i64 %174, %176
  %178 = load ptr, ptr %10, align 8, !tbaa !32
  %179 = getelementptr inbounds nuw %struct.AVStream, ptr %178, i32 0, i32 3
  %180 = load ptr, ptr %179, align 8, !tbaa !34
  %181 = getelementptr inbounds nuw %struct.AVCodecParameters, ptr %180, i32 0, i32 8
  store i64 %177, ptr %181, align 8, !tbaa !52
  %182 = load ptr, ptr %10, align 8, !tbaa !32
  %183 = getelementptr inbounds nuw %struct.AVStream, ptr %182, i32 0, i32 3
  %184 = load ptr, ptr %183, align 8, !tbaa !34
  %185 = getelementptr inbounds nuw %struct.AVCodecParameters, ptr %184, i32 0, i32 9
  %186 = load i32, ptr %185, align 8, !tbaa !51
  %187 = load i32, ptr %9, align 4, !tbaa !45
  %188 = mul nsw i32 %186, %187
  %189 = sdiv i32 %188, 8
  %190 = load ptr, ptr %10, align 8, !tbaa !32
  %191 = getelementptr inbounds nuw %struct.AVStream, ptr %190, i32 0, i32 3
  %192 = load ptr, ptr %191, align 8, !tbaa !34
  %193 = getelementptr inbounds nuw %struct.AVCodecParameters, ptr %192, i32 0, i32 26
  store i32 %189, ptr %193, align 4, !tbaa !53
  %194 = load ptr, ptr %10, align 8, !tbaa !32
  %195 = load ptr, ptr %10, align 8, !tbaa !32
  %196 = getelementptr inbounds nuw %struct.AVStream, ptr %195, i32 0, i32 3
  %197 = load ptr, ptr %196, align 8, !tbaa !34
  %198 = getelementptr inbounds nuw %struct.AVCodecParameters, ptr %197, i32 0, i32 25
  %199 = load i32, ptr %198, align 8, !tbaa !50
  call void @avpriv_set_pts_info(ptr noundef %194, i32 noundef 64, i32 noundef 1, i32 noundef %199)
  store i32 0, ptr %2, align 4
  store i32 1, ptr %11, align 4
  br label %200

200:                                              ; preds = %144, %141, %108, %79, %70, %20
  call void @llvm.lifetime.end.p0(i64 8, ptr %10) #7
  call void @llvm.lifetime.end.p0(i64 4, ptr %9) #7
  call void @llvm.lifetime.end.p0(i64 8, ptr %8) #7
  call void @llvm.lifetime.end.p0(i64 8, ptr %7) #7
  call void @llvm.lifetime.end.p0(i64 4, ptr %6) #7
  call void @llvm.lifetime.end.p0(i64 4, ptr %5) #7
  call void @llvm.lifetime.end.p0(i64 8, ptr %4) #7
  %201 = load i32, ptr %2, align 4
  ret i32 %201
}