; Function Attrs: nounwind uwtable
define internal range(i32 -1094995529, 1) i32 @sox_read_header(ptr noundef %0) #1 {
  %2 = alloca ptr, align 8
  %3 = getelementptr inbounds nuw i8, ptr %0, i64 32
  %4 = load ptr, ptr %3, align 8, !tbaa !12
  %5 = tail call ptr @avformat_new_stream(ptr noundef %0, ptr noundef null) #5
  %.not = icmp eq ptr %5, null
  br i1 %.not, label %75, label %6

6:                                                ; preds = %1
  %7 = getelementptr inbounds nuw i8, ptr %5, i64 16
  %8 = load ptr, ptr %7, align 8, !tbaa !27
  store i32 1, ptr %8, align 8, !tbaa !34
  %9 = tail call i32 @avio_rl32(ptr noundef %4) #5
  %10 = icmp eq i32 %9, 1483690798
  %11 = load ptr, ptr %7, align 8, !tbaa !27
  %12 = getelementptr inbounds nuw i8, ptr %11, i64 4
  br i1 %10, label %13, label %19

13:                                               ; preds = %6
  store i32 65544, ptr %12, align 4, !tbaa !37
  %14 = tail call i32 @avio_rl32(ptr noundef %4) #5
  %15 = tail call i64 @avio_skip(ptr noundef %4, i64 noundef 8) #5
  %16 = tail call i64 @avio_rl64(ptr noundef %4) #5
  %17 = tail call i32 @avio_rl32(ptr noundef %4) #5
  %18 = tail call i32 @avio_rl32(ptr noundef %4) #5
  br label %25

19:                                               ; preds = %6
  store i32 65545, ptr %12, align 4, !tbaa !37
  %20 = tail call i32 @avio_rb32(ptr noundef %4) #5
  %21 = tail call i64 @avio_skip(ptr noundef %4, i64 noundef 8) #5
  %22 = tail call i64 @avio_rb64(ptr noundef %4) #5
  %23 = tail call i32 @avio_rb32(ptr noundef %4) #5
  %24 = tail call i32 @avio_rb32(ptr noundef %4) #5
  br label %25

25:                                               ; preds = %19, %13
  %.072 = phi i32 [ %18, %13 ], [ %24, %19 ]
  %.071.in = phi i64 [ %16, %13 ], [ %22, %19 ]
  %.070 = phi i32 [ %14, %13 ], [ %20, %19 ]
  %.069 = phi i32 [ %17, %13 ], [ %23, %19 ]
  %.071 = bitcast i64 %.071.in to double
  %26 = load ptr, ptr %7, align 8, !tbaa !27
  %27 = getelementptr inbounds nuw i8, ptr %26, i64 132
  store i32 %.069, ptr %27, align 4, !tbaa !38
  %28 = icmp ugt i32 %.072, -33
  br i1 %28, label %29, label %30

29:                                               ; preds = %25
  tail call void (ptr, i32, ptr, ...) @av_log(ptr noundef nonnull %0, i32 noundef 16, ptr noundef nonnull @.str.2, i32 noundef %.072) #5
  br label %75

30:                                               ; preds = %25
  %31 = fcmp nsz ole double %.071, 0.000000e+00
  %32 = fcmp nsz ogt double %.071, 0x41DFFFFFFFC00000
  %or.cond = or i1 %31, %32
  br i1 %or.cond, label %33, label %34

33:                                               ; preds = %30
  tail call void (ptr, i32, ptr, ...) @av_log(ptr noundef nonnull %0, i32 noundef 16, ptr noundef nonnull @.str.3, double noundef %.071) #5
  br label %75

34:                                               ; preds = %30
  %35 = tail call nsz double @llvm.floor.f64(double %.071)
  %36 = fsub nsz double %.071, %35
  %37 = fcmp nsz une double %36, 0.000000e+00
  br i1 %37, label %38, label %39

38:                                               ; preds = %34
  tail call void (ptr, i32, ptr, ...) @av_log(ptr noundef nonnull %0, i32 noundef 24, ptr noundef nonnull @.str.4, double noundef %36) #5
  br label %39

39:                                               ; preds = %38, %34
  %40 = and i32 %.070, 7
  %.not76 = icmp eq i32 %40, 4
  br i1 %.not76, label %41, label %46

41:                                               ; preds = %39
  %42 = add nuw i32 %.072, 28
  %43 = icmp ult i32 %.070, %42
  %44 = add i32 %.069, -65536
  %45 = icmp ult i32 %44, -65535
  %or.cond5 = select i1 %43, i1 true, i1 %45
  br i1 %or.cond5, label %46, label %47

46:                                               ; preds = %41, %39
  tail call void (ptr, i32, ptr, ...) @av_log(ptr noundef nonnull %0, i32 noundef 16, ptr noundef nonnull @.str.5) #5
  br label %75

47:                                               ; preds = %41
  %.not77 = icmp eq i32 %.072, 0
  br i1 %.not77, label %60, label %48

48:                                               ; preds = %47
  call void @llvm.lifetime.start.p0(i64 8, ptr nonnull %2) #5
  %49 = add nuw i32 %.072, 1
  %50 = zext i32 %49 to i64
  %51 = tail call noalias ptr @av_malloc(i64 noundef %50) #5
  store ptr %51, ptr %2, align 8, !tbaa !39
  %.not78 = icmp eq ptr %51, null
  br i1 %.not78, label %.thread, label %52

52:                                               ; preds = %48
  %53 = tail call i32 @avio_read(ptr noundef %4, ptr noundef nonnull %51, i32 noundef %.072) #5
  %.not79 = icmp eq i32 %53, %.072
  br i1 %.not79, label %55, label %54

54:                                               ; preds = %52
  call void @av_freep(ptr noundef nonnull %2) #5
  br label %.thread

.thread:                                          ; preds = %54, %48
  %.1.ph = phi i32 [ -12, %48 ], [ -5, %54 ]
  call void @llvm.lifetime.end.p0(i64 8, ptr nonnull %2) #5
  br label %75

55:                                               ; preds = %52
  %56 = zext i32 %.072 to i64
  %57 = getelementptr inbounds nuw i8, ptr %51, i64 %56
  store i8 0, ptr %57, align 1, !tbaa !11
  %58 = getelementptr inbounds nuw i8, ptr %0, i64 192
  %59 = tail call i32 @av_dict_set(ptr noundef nonnull %58, ptr noundef nonnull @.str.6, ptr noundef nonnull %51, i32 noundef 8) #5
  call void @llvm.lifetime.end.p0(i64 8, ptr nonnull %2) #5
  br label %60

60:                                               ; preds = %55, %47
  %reass.sub = sub i32 %.070, %.072
  %61 = add i32 %reass.sub, -28
  %62 = zext i32 %61 to i64
  %63 = tail call i64 @avio_skip(ptr noundef %4, i64 noundef %62) #5
  %64 = fptosi double %.071 to i32
  %65 = load ptr, ptr %7, align 8, !tbaa !27
  %66 = getelementptr inbounds nuw i8, ptr %65, i64 152
  store i32 %64, ptr %66, align 8, !tbaa !40
  %67 = getelementptr inbounds nuw i8, ptr %65, i64 56
  store i32 32, ptr %67, align 8, !tbaa !41
  %68 = sext i32 %64 to i64
  %69 = shl nsw i64 %68, 5
  %70 = zext nneg i32 %.069 to i64
  %71 = mul nsw i64 %69, %70
  %72 = getelementptr inbounds nuw i8, ptr %65, i64 48
  store i64 %71, ptr %72, align 8, !tbaa !42
  %73 = shl nuw nsw i32 %.069, 2
  %74 = getelementptr inbounds nuw i8, ptr %65, i64 156
  store i32 %73, ptr %74, align 4, !tbaa !43
  tail call void @avpriv_set_pts_info(ptr noundef nonnull %5, i32 noundef 64, i32 noundef 1, i32 noundef %64) #5
  br label %75

75:                                               ; preds = %.thread, %1, %60, %46, %33, %29
  %.068 = phi i32 [ -1094995529, %29 ], [ -1094995529, %33 ], [ -1094995529, %46 ], [ 0, %60 ], [ -12, %1 ], [ %.1.ph, %.thread ]
  ret i32 %.068
}